target datalayout = "e-m:e-p270:32:32-p271:32:32-p272:64:64-i64:64-i128:128-f80:128-n8:16:32:64-S128"
target triple = "x86_64-pc-linux-gnu"

@.str.46 = private unnamed_addr constant [25 x i8] c"KINGetNumNonlinSolvIters\00", align 1
@.str.47 = private unnamed_addr constant [19 x i8] c"KINGetNumFuncEvals\00", align 1
@.str.48 = private unnamed_addr constant [18 x i8] c"KINGetNumLinIters\00", align 1
@.str.49 = private unnamed_addr constant [19 x i8] c"KINGetNumPrecEvals\00", align 1
@.str.50 = private unnamed_addr constant [20 x i8] c"KINGetNumPrecSolves\00", align 1
@.str.51 = private unnamed_addr constant [22 x i8] c"KINGetNumLinConvFails\00", align 1
@.str.52 = private unnamed_addr constant [22 x i8] c"KINGetNumLinFuncEvals\00", align 1
@.str.53 = private unnamed_addr constant [21 x i8] c"Final Statistics.. \0A\00", align 1
@.str.54 = private unnamed_addr constant [31 x i8] c"nni    = %5ld    nli   = %5ld\0A\00", align 1
@.str.55 = private unnamed_addr constant [31 x i8] c"nfe    = %5ld    nfeSG = %5ld\0A\00", align 1
@.str.56 = private unnamed_addr constant [48 x i8] c"nps    = %5ld    npe   = %5ld     ncfl  = %5ld\0A\00", align 1
@.str.57 = private unnamed_addr constant [61 x i8] c"\0A=========================================================\0A\0A\00", align 1
@stderr = external global ptr, align 8
@.str.58 = private unnamed_addr constant [55 x i8] c"\0ASUNDIALS_ERROR: %s() failed - returned NULL pointer\0A\0A\00", align 1
@.str.59 = private unnamed_addr constant [46 x i8] c"\0ASUNDIALS_ERROR: %s() failed with flag = %d\0A\0A\00", align 1
@.str.60 = private unnamed_addr constant [53 x i8] c"\0AMEMORY_ERROR: %s() failed - returned NULL pointer\0A\0A\00", align 1

; Function Attrs: nounwind uwtable
define internal i32 @check_flag(ptr noundef %0, ptr noundef %1, i32 noundef %2) #0 {
  %4 = alloca i32, align 4
  %5 = alloca ptr, align 8
  %6 = alloca ptr, align 8
  %7 = alloca i32, align 4
  %8 = alloca ptr, align 8
  %9 = alloca i32, align 4
  store ptr %0, ptr %5, align 8, !tbaa !11
  store ptr %1, ptr %6, align 8, !tbaa !29
  store i32 %2, ptr %7, align 4, !tbaa !14
  call void @llvm.lifetime.start.p0(i64 8, ptr %8) #6
  %10 = load i32, ptr %7, align 4, !tbaa !14
  %11 = icmp eq i32 %10, 0
  br i1 %11, label %12, label %19

12:                                               ; preds = %3
  %13 = load ptr, ptr %5, align 8, !tbaa !11
  %14 = icmp eq ptr %13, null
  br i1 %14, label %15, label %19

15:                                               ; preds = %12
  %16 = load ptr, ptr @stderr, align 8, !tbaa !31
  %17 = load ptr, ptr %6, align 8, !tbaa !29
  %18 = call i32 (ptr, ptr, ...) @fprintf(ptr noundef %16, ptr noundef @.str.58, ptr noundef %17) #6
  store i32 1, ptr %4, align 4
  store i32 1, ptr %9, align 4
  br label %47

19:                                               ; preds = %12, %3
  %20 = load i32, ptr %7, align 4, !tbaa !14
  %21 = icmp eq i32 %20, 1
  br i1 %21, label %22, label %34

22:                                               ; preds = %19
  %23 = load ptr, ptr %5, align 8, !tbaa !11
  store ptr %23, ptr %8, align 8, !tbaa !33
  %24 = load ptr, ptr %8, align 8, !tbaa !33
  %25 = load i32, ptr %24, align 4, !tbaa !14
  %26 = icmp slt i32 %25, 0
  br i1 %26, label %27, label %33

27:                                               ; preds = %22
  %28 = load ptr, ptr @stderr, align 8, !tbaa !31
  %29 = load ptr, ptr %6, align 8, !tbaa !29
  %30 = load ptr, ptr %8, align 8, !tbaa !33
  %31 = load i32, ptr %30, align 4, !tbaa !14
  %32 = call i32 (ptr, ptr, ...) @fprintf(ptr noundef %28, ptr noundef @.str.59, ptr noundef %29, i32 noundef %31) #6
  store i32 1, ptr %4, align 4
  store i32 1, ptr %9, align 4
  br label %47

33:                                               ; preds = %22
  br label %45

34:                                               ; preds = %19
  %35 = load i32, ptr %7, align 4, !tbaa !14
  %36 = icmp eq i32 %35, 2
  br i1 %36, label %37, label %44

37:                                               ; preds = %34
  %38 = load ptr, ptr %5, align 8, !tbaa !11
  %39 = icmp eq ptr %38, null
  br i1 %39, label %40, label %44

40:                                               ; preds = %37
  %41 = load ptr, ptr @stderr, align 8, !tbaa !31
  %42 = load ptr, ptr %6, align 8, !tbaa !29
  %43 = call i32 (ptr, ptr, ...) @fprintf(ptr noundef %41, ptr noundef @.str.60, ptr noundef %42) #6
  store i32 1, ptr %4, align 4
  store i32 1, ptr %9, align 4
  br label %47

44:                                               ; preds = %37, %34
  br label %45

45:                                               ; preds = %44, %33
  br label %46

46:                                               ; preds = %45
  store i32 0, ptr %4, align 4
  store i32 1, ptr %9, align 4
  br label %47

47:                                               ; preds = %46, %40, %27, %15
  call void @llvm.lifetime.end.p0(i64 8, ptr %8) #6
  %48 = load i32, ptr %4, align 4
  ret i32 %48
}

; Function Attrs: nounwind uwtable
define internal void @PrintFinalStats(ptr noundef %0, i32 noundef %1) #0 {
  %3 = alloca ptr, align 8
  %4 = alloca i32, align 4
  %5 = alloca i64, align 8
  %6 = alloca i64, align 8
  %7 = alloca i64, align 8
  %8 = alloca i64, align 8
  %9 = alloca i64, align 8
  %10 = alloca i64, align 8
  %11 = alloca i64, align 8
  %12 = alloca i32, align 4
  store ptr %0, ptr %3, align 8, !tbaa !11
  store i32 %1, ptr %4, align 4, !tbaa !14
  call void @llvm.lifetime.start.p0(i64 8, ptr %5) #6
  call void @llvm.lifetime.start.p0(i64 8, ptr %6) #6
  call void @llvm.lifetime.start.p0(i64 8, ptr %7) #6
  call void @llvm.lifetime.start.p0(i64 8, ptr %8) #6
  call void @llvm.lifetime.start.p0(i64 8, ptr %9) #6
  call void @llvm.lifetime.start.p0(i64 8, ptr %10) #6
  call void @llvm.lifetime.start.p0(i64 8, ptr %11) #6
  call void @llvm.lifetime.start.p0(i64 4, ptr %12) #6
  %13 = load ptr, ptr %3, align 8, !tbaa !11
  %14 = call i32 @KINGetNumNonlinSolvIters(ptr noundef %13, ptr noundef %5)
  store i32 %14, ptr %12, align 4, !tbaa !14
  %15 = call i32 @check_flag(ptr noundef %12, ptr noundef @.str.46, i32 noundef 1)
  %16 = load ptr, ptr %3, align 8, !tbaa !11
  %17 = call i32 @KINGetNumFuncEvals(ptr noundef %16, ptr noundef %6)
  store i32 %17, ptr %12, align 4, !tbaa !14
  %18 = call i32 @check_flag(ptr noundef %12, ptr noundef @.str.47, i32 noundef 1)
  %19 = load ptr, ptr %3, align 8, !tbaa !11
  %20 = call i32 @KINGetNumLinIters(ptr noundef %19, ptr noundef %7)
  store i32 %20, ptr %12, align 4, !tbaa !14
  %21 = call i32 @check_flag(ptr noundef %12, ptr noundef @.str.48, i32 noundef 1)
  %22 = load ptr, ptr %3, align 8, !tbaa !11
  %23 = call i32 @KINGetNumPrecEvals(ptr noundef %22, ptr noundef %8)
  store i32 %23, ptr %12, align 4, !tbaa !14
  %24 = call i32 @check_flag(ptr noundef %12, ptr noundef @.str.49, i32 noundef 1)
  %25 = load ptr, ptr %3, align 8, !tbaa !11
  %26 = call i32 @KINGetNumPrecSolves(ptr noundef %25, ptr noundef %9)
  store i32 %26, ptr %12, align 4, !tbaa !14
  %27 = call i32 @check_flag(ptr noundef %12, ptr noundef @.str.50, i32 noundef 1)
  %28 = load ptr, ptr %3, align 8, !tbaa !11
  %29 = call i32 @KINGetNumLinConvFails(ptr noundef %28, ptr noundef %10)
  store i32 %29, ptr %12, align 4, !tbaa !14
  %30 = call i32 @check_flag(ptr noundef %12, ptr noundef @.str.51, i32 noundef 1)
  %31 = load ptr, ptr %3, align 8, !tbaa !11
  %32 = call i32 @KINGetNumLinFuncEvals(ptr noundef %31, ptr noundef %11)
  store i32 %32, ptr %12, align 4, !tbaa !14
  %33 = call i32 @check_flag(ptr noundef %12, ptr noundef @.str.52, i32 noundef 1)
  %34 = call i32 (ptr, ...) @printf(ptr noundef @.str.53)
  %35 = load i64, ptr %5, align 8, !tbaa !52
  %36 = load i64, ptr %7, align 8, !tbaa !52
  %37 = call i32 (ptr, ...) @printf(ptr noundef @.str.54, i64 noundef %35, i64 noundef %36)
  %38 = load i64, ptr %6, align 8, !tbaa !52
  %39 = load i64, ptr %11, align 8, !tbaa !52
  %40 = call i32 (ptr, ...) @printf(ptr noundef @.str.55, i64 noundef %38, i64 noundef %39)
  %41 = load i64, ptr %9, align 8, !tbaa !52
  %42 = load i64, ptr %8, align 8, !tbaa !52
  %43 = load i64, ptr %10, align 8, !tbaa !52
  %44 = call i32 (ptr, ...) @printf(ptr noundef @.str.56, i64 noundef %41, i64 noundef %42, i64 noundef %43)
  %45 = load i32, ptr %4, align 4, !tbaa !14
  %46 = icmp slt i32 %45, 3
  br i1 %46, label %47, label %49

47:                                               ; preds = %2
  %48 = call i32 (ptr, ...) @printf(ptr noundef @.str.57)
  br label %49

49:                                               ; preds = %47, %2
  call void @llvm.lifetime.end.p0(i64 4, ptr %12) #6
  call void @llvm.lifetime.end.p0(i64 8, ptr %11) #6
  call void @llvm.lifetime.end.p0(i64 8, ptr %10) #6
  call void @llvm.lifetime.end.p0(i64 8, ptr %9) #6
  call void @llvm.lifetime.end.p0(i64 8, ptr %8) #6
  call void @llvm.lifetime.end.p0(i64 8, ptr %7) #6
  call void @llvm.lifetime.end.p0(i64 8, ptr %6) #6
  call void @llvm.lifetime.end.p0(i64 8, ptr %5) #6
  ret void
}