; Function Attrs: nounwind uwtable
define internal fastcc void @PrintFinalStats(ptr noundef %0, i32 noundef range(i32 -2147483648, 4) %1) unnamed_addr #0 {
  %3 = alloca i64, align 8
  %4 = alloca i64, align 8
  %5 = alloca i64, align 8
  %6 = alloca i64, align 8
  %7 = alloca i64, align 8
  %8 = alloca i64, align 8
  %9 = alloca i64, align 8
  call void @llvm.lifetime.start.p0(i64 8, ptr nonnull %3) #10
  call void @llvm.lifetime.start.p0(i64 8, ptr nonnull %4) #10
  call void @llvm.lifetime.start.p0(i64 8, ptr nonnull %5) #10
  call void @llvm.lifetime.start.p0(i64 8, ptr nonnull %6) #10
  call void @llvm.lifetime.start.p0(i64 8, ptr nonnull %7) #10
  call void @llvm.lifetime.start.p0(i64 8, ptr nonnull %8) #10
  call void @llvm.lifetime.start.p0(i64 8, ptr nonnull %9) #10
  %10 = call i32 @KINGetNumNonlinSolvIters(ptr noundef %0, ptr noundef nonnull %3) #10
  %11 = icmp slt i32 %10, 0
  br i1 %11, label %12, label %check_flag.exit

12:                                               ; preds = %2
  %13 = load ptr, ptr @stderr, align 8, !tbaa !35
  %14 = call i32 (ptr, ptr, ...) @fprintf(ptr noundef %13, ptr noundef nonnull @.str.59, ptr noundef nonnull @.str.46, i32 noundef %10) #12
  br label %check_flag.exit

check_flag.exit:                                  ; preds = %2, %12
  %15 = call i32 @KINGetNumFuncEvals(ptr noundef %0, ptr noundef nonnull %4) #10
  %16 = icmp slt i32 %15, 0
  br i1 %16, label %17, label %check_flag.exit9

17:                                               ; preds = %check_flag.exit
  %18 = load ptr, ptr @stderr, align 8, !tbaa !35
  %19 = call i32 (ptr, ptr, ...) @fprintf(ptr noundef %18, ptr noundef nonnull @.str.59, ptr noundef nonnull @.str.47, i32 noundef %15) #12
  br label %check_flag.exit9

check_flag.exit9:                                 ; preds = %check_flag.exit, %17
  %20 = call i32 @KINGetNumLinIters(ptr noundef %0, ptr noundef nonnull %5) #10
  %21 = icmp slt i32 %20, 0
  br i1 %21, label %22, label %check_flag.exit11

22:                                               ; preds = %check_flag.exit9
  %23 = load ptr, ptr @stderr, align 8, !tbaa !35
  %24 = call i32 (ptr, ptr, ...) @fprintf(ptr noundef %23, ptr noundef nonnull @.str.59, ptr noundef nonnull @.str.48, i32 noundef %20) #12
  br label %check_flag.exit11

check_flag.exit11:                                ; preds = %check_flag.exit9, %22
  %25 = call i32 @KINGetNumPrecEvals(ptr noundef %0, ptr noundef nonnull %6) #10
  %26 = icmp slt i32 %25, 0
  br i1 %26, label %27, label %check_flag.exit13

27:                                               ; preds = %check_flag.exit11
  %28 = load ptr, ptr @stderr, align 8, !tbaa !35
  %29 = call i32 (ptr, ptr, ...) @fprintf(ptr noundef %28, ptr noundef nonnull @.str.59, ptr noundef nonnull @.str.49, i32 noundef %25) #12
  br label %check_flag.exit13

check_flag.exit13:                                ; preds = %check_flag.exit11, %27
  %30 = call i32 @KINGetNumPrecSolves(ptr noundef %0, ptr noundef nonnull %7) #10
  %31 = icmp slt i32 %30, 0
  br i1 %31, label %32, label %check_flag.exit15

32:                                               ; preds = %check_flag.exit13
  %33 = load ptr, ptr @stderr, align 8, !tbaa !35
  %34 = call i32 (ptr, ptr, ...) @fprintf(ptr noundef %33, ptr noundef nonnull @.str.59, ptr noundef nonnull @.str.50, i32 noundef %30) #12
  br label %check_flag.exit15

check_flag.exit15:                                ; preds = %check_flag.exit13, %32
  %35 = call i32 @KINGetNumLinConvFails(ptr noundef %0, ptr noundef nonnull %8) #10
  %36 = icmp slt i32 %35, 0
  br i1 %36, label %37, label %check_flag.exit17

37:                                               ; preds = %check_flag.exit15
  %38 = load ptr, ptr @stderr, align 8, !tbaa !35
  %39 = call i32 (ptr, ptr, ...) @fprintf(ptr noundef %38, ptr noundef nonnull @.str.59, ptr noundef nonnull @.str.51, i32 noundef %35) #12
  br label %check_flag.exit17

check_flag.exit17:                                ; preds = %check_flag.exit15, %37
  %40 = call i32 @KINGetNumLinFuncEvals(ptr noundef %0, ptr noundef nonnull %9) #10
  %41 = icmp slt i32 %40, 0
  br i1 %41, label %42, label %check_flag.exit19

42:                                               ; preds = %check_flag.exit17
  %43 = load ptr, ptr @stderr, align 8, !tbaa !35
  %44 = call i32 (ptr, ptr, ...) @fprintf(ptr noundef %43, ptr noundef nonnull @.str.59, ptr noundef nonnull @.str.52, i32 noundef %40) #12
  br label %check_flag.exit19

check_flag.exit19:                                ; preds = %check_flag.exit17, %42
  %puts = call i32 @puts(ptr nonnull dereferenceable(1) @str.14)
  %45 = load i64, ptr %3, align 8, !tbaa !44
  %46 = load i64, ptr %5, align 8, !tbaa !44
  %47 = call i32 (ptr, ...) @printf(ptr noundef nonnull dereferenceable(1) @.str.54, i64 noundef %45, i64 noundef %46)
  %48 = load i64, ptr %4, align 8, !tbaa !44
  %49 = load i64, ptr %9, align 8, !tbaa !44
  %50 = call i32 (ptr, ...) @printf(ptr noundef nonnull dereferenceable(1) @.str.55, i64 noundef %48, i64 noundef %49)
  %51 = load i64, ptr %7, align 8, !tbaa !44
  %52 = load i64, ptr %6, align 8, !tbaa !44
  %53 = load i64, ptr %8, align 8, !tbaa !44
  %54 = call i32 (ptr, ...) @printf(ptr noundef nonnull dereferenceable(1) @.str.56, i64 noundef %51, i64 noundef %52, i64 noundef %53)
  %55 = icmp slt i32 %1, 3
  br i1 %55, label %56, label %57

56:                                               ; preds = %check_flag.exit19
  %puts7 = call i32 @puts(ptr nonnull dereferenceable(1) @str.15)
  br label %57

57:                                               ; preds = %56, %check_flag.exit19
  call void @llvm.lifetime.end.p0(i64 8, ptr nonnull %9) #10
  call void @llvm.lifetime.end.p0(i64 8, ptr nonnull %8) #10
  call void @llvm.lifetime.end.p0(i64 8, ptr nonnull %7) #10
  call void @llvm.lifetime.end.p0(i64 8, ptr nonnull %6) #10
  call void @llvm.lifetime.end.p0(i64 8, ptr nonnull %5) #10
  call void @llvm.lifetime.end.p0(i64 8, ptr nonnull %4) #10
  call void @llvm.lifetime.end.p0(i64 8, ptr nonnull %3) #10
  ret void
}